target datalayout = "e-m:e-p270:32:32-p271:32:32-p272:64:64-i64:64-i128:128-f80:128-n8:16:32:64-S128"
target triple = "x86_64-pc-linux-gnu"

%struct._formatdef = type { i8, i64, i64, ptr, ptr }

; Function Attrs: nounwind uwtable
define internal ptr @bu_uint(ptr noundef %0, ptr noundef %1, ptr noundef %2) #0 {
  %4 = alloca ptr, align 8
  %5 = alloca ptr, align 8
  %6 = alloca ptr, align 8
  %7 = alloca i64, align 8
  %8 = alloca i64, align 8
  %9 = alloca ptr, align 8
  store ptr %0, ptr %4, align 8, !tbaa !8
  store ptr %1, ptr %5, align 8, !tbaa !43
  store ptr %2, ptr %6, align 8, !tbaa !49
  call void @llvm.lifetime.start.p0(i64 8, ptr %7) #8
  store i64 0, ptr %7, align 8, !tbaa !18
  call void @llvm.lifetime.start.p0(i64 8, ptr %8) #8
  %10 = load ptr, ptr %6, align 8, !tbaa !49
  %11 = getelementptr inbounds nuw %struct._formatdef, ptr %10, i32 0, i32 1
  %12 = load i64, ptr %11, align 8, !tbaa !75
  store i64 %12, ptr %8, align 8, !tbaa !18
  call void @llvm.lifetime.start.p0(i64 8, ptr %9) #8
  %13 = load ptr, ptr %5, align 8, !tbaa !43
  store ptr %13, ptr %9, align 8, !tbaa !43
  br label %14

14:                                               ; preds = %22, %3
  %15 = load i64, ptr %7, align 8, !tbaa !18
  %16 = shl i64 %15, 8
  %17 = load ptr, ptr %9, align 8, !tbaa !43
  %18 = getelementptr i8, ptr %17, i32 1
  store ptr %18, ptr %9, align 8, !tbaa !43
  %19 = load i8, ptr %17, align 1, !tbaa !32
  %20 = zext i8 %19 to i64
  %21 = or i64 %16, %20
  store i64 %21, ptr %7, align 8, !tbaa !18
  br label %22

22:                                               ; preds = %14
  %23 = load i64, ptr %8, align 8, !tbaa !18
  %24 = add i64 %23, -1
  store i64 %24, ptr %8, align 8, !tbaa !18
  %25 = icmp sgt i64 %24, 0
  br i1 %25, label %14, label %26, !llvm.loop !92

26:                                               ; preds = %22
  %27 = load i64, ptr %7, align 8, !tbaa !18
  %28 = call ptr @PyLong_FromUnsignedLong(i64 noundef %27)
  call void @llvm.lifetime.end.p0(i64 8, ptr %9) #8
  call void @llvm.lifetime.end.p0(i64 8, ptr %8) #8
  call void @llvm.lifetime.end.p0(i64 8, ptr %7) #8
  ret ptr %28
}