; Function Attrs: nounwind uwtable
define internal ptr @bu_uint(ptr readnone captures(none) %0, ptr noundef readonly captures(none) %1, ptr noundef readonly captures(none) %2) #0 {
  %4 = getelementptr inbounds nuw i8, ptr %2, i64 8
  %5 = load i64, ptr %4, align 8, !tbaa !67
  br label %6

6:                                                ; preds = %6, %3
  %.06 = phi i64 [ 0, %3 ], [ %11, %6 ]
  %.05 = phi i64 [ %5, %3 ], [ %12, %6 ]
  %.0 = phi ptr [ %1, %3 ], [ %8, %6 ]
  %7 = shl i64 %.06, 8
  %8 = getelementptr i8, ptr %.0, i64 1
  %9 = load i8, ptr %.0, align 1, !tbaa !18
  %10 = zext i8 %9 to i64
  %11 = or disjoint i64 %7, %10
  %12 = add i64 %.05, -1
  %13 = icmp sgt i64 %12, 0
  br i1 %13, label %6, label %14, !llvm.loop !84

14:                                               ; preds = %6
  %15 = tail call ptr @PyLong_FromUnsignedLong(i64 noundef %11) #7
  ret ptr %15
}